target datalayout = "e-m:e-p270:32:32-p271:32:32-p272:64:64-i64:64-i128:128-f80:128-n8:16:32:64-S128"
target triple = "x86_64-pc-linux-gnu"

%struct.lxb_html_tokenizer = type { ptr, ptr, ptr, ptr, ptr, ptr, ptr, ptr, ptr, ptr, ptr, ptr, ptr, ptr, ptr, i64, ptr, ptr, ptr, ptr, ptr, i64, i64, ptr, ptr, i64, i64, i32, i32, i8, i32, i32, i8, ptr, i64 }

; Function Attrs: nounwind uwtable
define internal ptr @lxb_html_tokenizer_state_markup_declaration_doctype(ptr noundef %0, ptr noundef %1, ptr noundef %2) #0 {
  %4 = alloca ptr, align 8
  %5 = alloca ptr, align 8
  %6 = alloca ptr, align 8
  %7 = alloca ptr, align 8
  %8 = alloca ptr, align 8
  store ptr %0, ptr %5, align 8
  store ptr %1, ptr %6, align 8
  store ptr %2, ptr %7, align 8
  %9 = load ptr, ptr %5, align 8
  %10 = getelementptr inbounds %struct.lxb_html_tokenizer, ptr %9, i32 0, i32 13
  %11 = load ptr, ptr %10, align 8
  %12 = load ptr, ptr %6, align 8
  %13 = load ptr, ptr %7, align 8
  %14 = load ptr, ptr %6, align 8
  %15 = ptrtoint ptr %13 to i64
  %16 = ptrtoint ptr %14 to i64
  %17 = sub i64 %15, %16
  %18 = call ptr @lexbor_str_data_ncasecmp_first(ptr noundef %11, ptr noundef %12, i64 noundef %17)
  store ptr %18, ptr %8, align 8
  %19 = load ptr, ptr %8, align 8
  %20 = icmp eq ptr %19, null
  br i1 %20, label %21, label %30

21:                                               ; preds = %3
  %22 = load ptr, ptr %5, align 8
  %23 = getelementptr inbounds %struct.lxb_html_tokenizer, ptr %22, i32 0, i32 11
  %24 = load ptr, ptr %23, align 8
  %25 = load ptr, ptr %6, align 8
  %26 = call ptr @lxb_html_tokenizer_error_add(ptr noundef %24, ptr noundef %25, i32 noundef 18)
  %27 = load ptr, ptr %5, align 8
  %28 = getelementptr inbounds %struct.lxb_html_tokenizer, ptr %27, i32 0, i32 0
  store ptr @lxb_html_tokenizer_state_bogus_comment_before, ptr %28, align 8
  %29 = load ptr, ptr %6, align 8
  store ptr %29, ptr %4, align 8
  br label %53

30:                                               ; preds = %3
  %31 = load ptr, ptr %8, align 8
  %32 = load i8, ptr %31, align 1
  %33 = zext i8 %32 to i32
  %34 = icmp eq i32 %33, 0
  br i1 %34, label %35, label %48

35:                                               ; preds = %30
  %36 = load ptr, ptr %6, align 8
  %37 = load ptr, ptr %8, align 8
  %38 = load ptr, ptr %5, align 8
  %39 = getelementptr inbounds %struct.lxb_html_tokenizer, ptr %38, i32 0, i32 13
  %40 = load ptr, ptr %39, align 8
  %41 = ptrtoint ptr %37 to i64
  %42 = ptrtoint ptr %40 to i64
  %43 = sub i64 %41, %42
  %44 = getelementptr inbounds i8, ptr %36, i64 %43
  store ptr %44, ptr %6, align 8
  %45 = load ptr, ptr %5, align 8
  %46 = getelementptr inbounds %struct.lxb_html_tokenizer, ptr %45, i32 0, i32 0
  store ptr @lxb_html_tokenizer_state_doctype_before, ptr %46, align 8
  %47 = load ptr, ptr %6, align 8
  store ptr %47, ptr %4, align 8
  br label %53

48:                                               ; preds = %30
  %49 = load ptr, ptr %8, align 8
  %50 = load ptr, ptr %5, align 8
  %51 = getelementptr inbounds %struct.lxb_html_tokenizer, ptr %50, i32 0, i32 13
  store ptr %49, ptr %51, align 8
  %52 = load ptr, ptr %7, align 8
  store ptr %52, ptr %4, align 8
  br label %53

53:                                               ; preds = %48, %35, %21
  %54 = load ptr, ptr %4, align 8
  ret ptr %54
}