; Function Attrs: nounwind uwtable
define internal ptr @lxb_html_tokenizer_state_markup_declaration_doctype(ptr nocapture noundef %0, ptr noundef %1, ptr noundef %2) #1 {
  %4 = getelementptr inbounds i8, ptr %0, i64 104
  %5 = load ptr, ptr %4, align 8
  %6 = ptrtoint ptr %2 to i64
  %7 = ptrtoint ptr %1 to i64
  %8 = sub i64 %6, %7
  %9 = tail call ptr @lexbor_str_data_ncasecmp_first(ptr noundef %5, ptr noundef %1, i64 noundef %8) #5
  %10 = icmp eq ptr %9, null
  br i1 %10, label %11, label %15

11:                                               ; preds = %3
  %12 = getelementptr inbounds i8, ptr %0, i64 88
  %13 = load ptr, ptr %12, align 8
  %14 = tail call ptr @lxb_html_tokenizer_error_add(ptr noundef %13, ptr noundef %1, i32 noundef 18) #5
  store ptr @lxb_html_tokenizer_state_bogus_comment_before, ptr %0, align 8
  br label %25

15:                                               ; preds = %3
  %16 = load i8, ptr %9, align 1
  %17 = icmp eq i8 %16, 0
  br i1 %17, label %18, label %24

18:                                               ; preds = %15
  %19 = load ptr, ptr %4, align 8
  %20 = ptrtoint ptr %9 to i64
  %21 = ptrtoint ptr %19 to i64
  %22 = sub i64 %20, %21
  %23 = getelementptr inbounds i8, ptr %1, i64 %22
  store ptr @lxb_html_tokenizer_state_doctype_before, ptr %0, align 8
  br label %25

24:                                               ; preds = %15
  store ptr %9, ptr %4, align 8
  br label %25

25:                                               ; preds = %24, %18, %11
  %.0 = phi ptr [ %1, %11 ], [ %23, %18 ], [ %2, %24 ]
  ret ptr %.0
}